target datalayout = "e-m:e-p270:32:32-p271:32:32-p272:64:64-i64:64-i128:128-f80:128-n8:16:32:64-S128"
target triple = "x86_64-pc-linux-gnu"

%"class.llvm::ilist_iterator" = type { ptr }
%"class.llvm::BlockFrequency" = type { i64 }
%"class.llvm::Function" = type { %"class.llvm::GlobalObject", %"class.llvm::ilist_node", %"class.llvm::SymbolTableList", i32, i32, ptr, i64, %"class.std::unique_ptr", %"class.llvm::AttributeList", i8, i32 }
%"class.llvm::GlobalObject" = type { %"class.llvm::GlobalValue", ptr }
%"class.llvm::GlobalValue" = type { %"class.llvm::Constant", ptr, i32, i32, ptr }
%"class.llvm::Constant" = type { %"class.llvm::User" }
%"class.llvm::User" = type { %"class.llvm::Value" }
%"class.llvm::Value" = type { i8, i8, i16, i32, ptr, ptr }
%"class.llvm::ilist_node" = type { %"class.llvm::ilist_node_impl" }
%"class.llvm::ilist_node_impl" = type { %"class.llvm::ilist_node_base" }
%"class.llvm::ilist_node_base" = type { %"class.llvm::ilist_detail::node_base_prevnext" }
%"class.llvm::ilist_detail::node_base_prevnext" = type { ptr, ptr }
%"class.llvm::SymbolTableList" = type { %"class.llvm::iplist_impl" }
%"class.llvm::iplist_impl" = type { %"class.llvm::simple_ilist" }
%"class.llvm::simple_ilist" = type { %"class.llvm::ilist_sentinel" }
%"class.llvm::ilist_sentinel" = type { %"class.llvm::ilist_node_impl.0" }
%"class.llvm::ilist_node_impl.0" = type { %"class.llvm::ilist_node_base" }
%"class.std::unique_ptr" = type { %"struct.std::__uniq_ptr_data" }
%"struct.std::__uniq_ptr_data" = type { %"class.std::__uniq_ptr_impl" }
%"class.std::__uniq_ptr_impl" = type { %"class.std::tuple" }
%"class.std::tuple" = type { %"struct.std::_Tuple_impl" }
%"struct.std::_Tuple_impl" = type { %"struct.std::_Head_base.3" }
%"struct.std::_Head_base.3" = type { ptr }
%"class.llvm::AttributeList" = type { ptr }

; Function Attrs: mustprogress nounwind uwtable
define linkonce_odr hidden noundef ptr @_ZNK4llvm12ilist_detail18node_base_prevnextINS_15ilist_node_baseILb0EvEELb0EE7getNextEv(ptr noundef nonnull align 8 dereferenceable(16) %0) #0 comdat align 2 {
  %2 = alloca ptr, align 8
  store ptr %0, ptr %2, align 8
  %3 = load ptr, ptr %2, align 8
  %4 = getelementptr inbounds nuw %"class.llvm::ilist_detail::node_base_prevnext", ptr %3, i32 0, i32 1
  %5 = load ptr, ptr %4, align 8
  ret ptr %5
}

; Function Attrs: mustprogress nounwind uwtable
define linkonce_odr hidden noundef ptr @_ZN4llvm12ilist_detail10NodeAccess11getValuePtrINS0_12node_optionsINS_10BasicBlockELb0ELb0EvLb0EvEEEENT_13const_pointerEPKNS_15ilist_node_implIS6_EE(ptr noundef %0) #0 comdat align 2 {
  %2 = alloca ptr, align 8
  store ptr %0, ptr %2, align 8
  %3 = load ptr, ptr %2, align 8
  %4 = icmp eq ptr %3, null
  br i1 %4, label %7, label %5

5:                                                ; preds = %1
  %6 = getelementptr inbounds i8, ptr %3, i64 -24
  br label %8

7:                                                ; preds = %1
  br label %8

8:                                                ; preds = %7, %5
  %9 = phi ptr [ %6, %5 ], [ null, %7 ]
  ret ptr %9
}

; Function Attrs: mustprogress nounwind uwtable
define linkonce_odr hidden void @_ZN4llvm14ilist_iteratorINS_12ilist_detail12node_optionsINS_10BasicBlockELb0ELb0EvLb0EvEELb0ELb1EEC2ERKNS_15ilist_node_implIS4_EE(ptr noundef nonnull align 8 dereferenceable(8) %0, ptr noundef nonnull align 8 dereferenceable(16) %1) unnamed_addr #0 comdat align 2 {
  %3 = alloca ptr, align 8
  %4 = alloca ptr, align 8
  store ptr %0, ptr %3, align 8
  store ptr %1, ptr %4, align 8
  %5 = load ptr, ptr %3, align 8
  %6 = getelementptr inbounds nuw %"class.llvm::ilist_iterator", ptr %5, i32 0, i32 0
  %7 = load ptr, ptr %4, align 8
  store ptr %7, ptr %6, align 8
  ret void
}

; Function Attrs: mustprogress nounwind uwtable
define linkonce_odr hidden noundef ptr @_ZNK4llvm15ilist_node_implINS_12ilist_detail12node_optionsINS_10BasicBlockELb0ELb0EvLb0EvEEE7getNextEv(ptr noundef nonnull align 8 dereferenceable(16) %0) #0 comdat align 2 {
  %2 = alloca ptr, align 8
  store ptr %0, ptr %2, align 8
  %3 = load ptr, ptr %2, align 8
  %4 = call noundef ptr @_ZNK4llvm12ilist_detail18node_base_prevnextINS_15ilist_node_baseILb0EvEELb0EE7getNextEv(ptr noundef nonnull align 8 dereferenceable(16) %3)
  ret ptr %4
}

; Function Attrs: mustprogress nounwind uwtable
define linkonce_odr hidden noundef ptr @_ZN4llvm12ilist_detail18SpecificNodeAccessINS0_12node_optionsINS_10BasicBlockELb0ELb0EvLb0EvEEE11getValuePtrEPKNS_15ilist_node_implIS4_EE(ptr noundef %0) #0 comdat align 2 {
  %2 = alloca ptr, align 8
  store ptr %0, ptr %2, align 8
  %3 = load ptr, ptr %2, align 8
  %4 = call noundef ptr @_ZN4llvm12ilist_detail10NodeAccess11getValuePtrINS0_12node_optionsINS_10BasicBlockELb0ELb0EvLb0EvEEEENT_13const_pointerEPKNS_15ilist_node_implIS6_EE(ptr noundef %3)
  ret ptr %4
}

; Function Attrs: mustprogress nounwind uwtable
define linkonce_odr hidden ptr @_ZNK4llvm12simple_ilistINS_10BasicBlockEJEE3endEv(ptr noundef nonnull align 8 dereferenceable(16) %0) #0 comdat align 2 {
  %2 = alloca %"class.llvm::ilist_iterator", align 8
  %3 = alloca ptr, align 8
  store ptr %0, ptr %3, align 8
  %4 = load ptr, ptr %3, align 8
  %5 = getelementptr inbounds nuw %"class.llvm::simple_ilist", ptr %4, i32 0, i32 0
  call void @_ZN4llvm14ilist_iteratorINS_12ilist_detail12node_optionsINS_10BasicBlockELb0ELb0EvLb0EvEELb0ELb1EEC2ERKNS_15ilist_node_implIS4_EE(ptr noundef nonnull align 8 dereferenceable(8) %2, ptr noundef nonnull align 8 dereferenceable(16) %5)
  %6 = getelementptr inbounds nuw %"class.llvm::ilist_iterator", ptr %2, i32 0, i32 0
  %7 = load ptr, ptr %6, align 8
  ret ptr %7
}

; Function Attrs: mustprogress nounwind uwtable
define linkonce_odr hidden ptr @_ZNK4llvm12simple_ilistINS_10BasicBlockEJEE5beginEv(ptr noundef nonnull align 8 dereferenceable(16) %0) #0 comdat align 2 {
  %2 = alloca %"class.llvm::ilist_iterator", align 8
  %3 = alloca ptr, align 8
  %4 = alloca %"class.llvm::ilist_iterator", align 8
  store ptr %0, ptr %3, align 8
  %5 = load ptr, ptr %3, align 8
  %6 = getelementptr inbounds nuw %"class.llvm::simple_ilist", ptr %5, i32 0, i32 0
  call void @_ZN4llvm14ilist_iteratorINS_12ilist_detail12node_optionsINS_10BasicBlockELb0ELb0EvLb0EvEELb0ELb1EEC2ERKNS_15ilist_node_implIS4_EE(ptr noundef nonnull align 8 dereferenceable(8) %4, ptr noundef nonnull align 8 dereferenceable(16) %6)
  %7 = call noundef nonnull align 8 dereferenceable(8) ptr @_ZN4llvm14ilist_iteratorINS_12ilist_detail12node_optionsINS_10BasicBlockELb0ELb0EvLb0EvEELb0ELb1EEppEv(ptr noundef nonnull align 8 dereferenceable(8) %4)
  call void @llvm.memcpy.p0.p0.i64(ptr align 8 %2, ptr align 8 %7, i64 8, i1 false)
  %8 = getelementptr inbounds nuw %"class.llvm::ilist_iterator", ptr %2, i32 0, i32 0
  %9 = load ptr, ptr %8, align 8
  ret ptr %9
}

; Function Attrs: mustprogress nounwind uwtable
define linkonce_odr hidden noundef nonnull align 8 dereferenceable(8) ptr @_ZN4llvm14ilist_iteratorINS_12ilist_detail12node_optionsINS_10BasicBlockELb0ELb0EvLb0EvEELb0ELb1EEppEv(ptr noundef nonnull align 8 dereferenceable(8) %0) #0 comdat align 2 {
  %2 = alloca ptr, align 8
  store ptr %0, ptr %2, align 8
  %3 = load ptr, ptr %2, align 8
  %4 = getelementptr inbounds nuw %"class.llvm::ilist_iterator", ptr %3, i32 0, i32 0
  %5 = load ptr, ptr %4, align 8
  %6 = call noundef ptr @_ZNK4llvm15ilist_node_implINS_12ilist_detail12node_optionsINS_10BasicBlockELb0ELb0EvLb0EvEEE7getNextEv(ptr noundef nonnull align 8 dereferenceable(16) %5)
  %7 = getelementptr inbounds nuw %"class.llvm::ilist_iterator", ptr %3, i32 0, i32 0
  store ptr %6, ptr %7, align 8
  ret ptr %3
}

; Function Attrs: mustprogress nounwind uwtable
define linkonce_odr hidden noundef i64 @_ZNK4llvm14BlockFrequency12getFrequencyEv(ptr noundef nonnull align 8 dereferenceable(8) %0) #0 comdat align 2 {
  %2 = alloca ptr, align 8
  store ptr %0, ptr %2, align 8
  %3 = load ptr, ptr %2, align 8
  %4 = getelementptr inbounds nuw %"class.llvm::BlockFrequency", ptr %3, i32 0, i32 0
  %5 = load i64, ptr %4, align 8
  ret i64 %5
}

; Function Attrs: mustprogress nounwind uwtable
define linkonce_odr hidden noundef nonnull align 8 dereferenceable(80) ptr @_ZNK4llvm14ilist_iteratorINS_12ilist_detail12node_optionsINS_10BasicBlockELb0ELb0EvLb0EvEELb0ELb1EEdeEv(ptr noundef nonnull align 8 dereferenceable(8) %0) #0 comdat align 2 {
  %2 = alloca ptr, align 8
  store ptr %0, ptr %2, align 8
  %3 = load ptr, ptr %2, align 8
  %4 = getelementptr inbounds nuw %"class.llvm::ilist_iterator", ptr %3, i32 0, i32 0
  %5 = load ptr, ptr %4, align 8
  %6 = call noundef ptr @_ZN4llvm12ilist_detail18SpecificNodeAccessINS0_12node_optionsINS_10BasicBlockELb0ELb0EvLb0EvEEE11getValuePtrEPKNS_15ilist_node_implIS4_EE(ptr noundef %5)
  ret ptr %6
}

; Function Attrs: mustprogress nounwind uwtable
define linkonce_odr hidden noundef zeroext i1 @_ZN4llvmneERKNS_14ilist_iteratorINS_12ilist_detail12node_optionsINS_10BasicBlockELb0ELb0EvLb0EvEELb0ELb1EEES7_(ptr noundef nonnull align 8 dereferenceable(8) %0, ptr noundef nonnull align 8 dereferenceable(8) %1) #0 comdat {
  %3 = alloca ptr, align 8
  %4 = alloca ptr, align 8
  store ptr %0, ptr %3, align 8
  store ptr %1, ptr %4, align 8
  %5 = load ptr, ptr %3, align 8
  %6 = getelementptr inbounds nuw %"class.llvm::ilist_iterator", ptr %5, i32 0, i32 0
  %7 = load ptr, ptr %6, align 8
  %8 = load ptr, ptr %4, align 8
  %9 = getelementptr inbounds nuw %"class.llvm::ilist_iterator", ptr %8, i32 0, i32 0
  %10 = load ptr, ptr %9, align 8
  %11 = icmp ne ptr %7, %10
  ret i1 %11
}

; Function Attrs: mustprogress nounwind uwtable
define linkonce_odr hidden ptr @_ZNK4llvm8Function3endEv(ptr noundef nonnull align 8 dereferenceable(136) %0) #0 comdat align 2 {
  %2 = alloca %"class.llvm::ilist_iterator", align 8
  %3 = alloca ptr, align 8
  store ptr %0, ptr %3, align 8
  %4 = load ptr, ptr %3, align 8
  %5 = getelementptr inbounds nuw %"class.llvm::Function", ptr %4, i32 0, i32 2
  %6 = call ptr @_ZNK4llvm12simple_ilistINS_10BasicBlockEJEE3endEv(ptr noundef nonnull align 8 dereferenceable(16) %5)
  %7 = getelementptr inbounds nuw %"class.llvm::ilist_iterator", ptr %2, i32 0, i32 0
  store ptr %6, ptr %7, align 8
  %8 = getelementptr inbounds nuw %"class.llvm::ilist_iterator", ptr %2, i32 0, i32 0
  %9 = load ptr, ptr %8, align 8
  ret ptr %9
}

; Function Attrs: mustprogress nounwind uwtable
define linkonce_odr hidden ptr @_ZNK4llvm8Function5beginEv(ptr noundef nonnull align 8 dereferenceable(136) %0) #0 comdat align 2 {
  %2 = alloca %"class.llvm::ilist_iterator", align 8
  %3 = alloca ptr, align 8
  store ptr %0, ptr %3, align 8
  %4 = load ptr, ptr %3, align 8
  %5 = getelementptr inbounds nuw %"class.llvm::Function", ptr %4, i32 0, i32 2
  %6 = call ptr @_ZNK4llvm12simple_ilistINS_10BasicBlockEJEE5beginEv(ptr noundef nonnull align 8 dereferenceable(16) %5)
  %7 = getelementptr inbounds nuw %"class.llvm::ilist_iterator", ptr %2, i32 0, i32 0
  store ptr %6, ptr %7, align 8
  %8 = getelementptr inbounds nuw %"class.llvm::ilist_iterator", ptr %2, i32 0, i32 0
  %9 = load ptr, ptr %8, align 8
  ret ptr %9
}

; Function Attrs: mustprogress nounwind uwtable
define dso_local noundef i64 @_ZN4llvm10getMaxFreqERKNS_8FunctionEPKNS_18BlockFrequencyInfoE(ptr noundef nonnull align 8 dereferenceable(136) %0, ptr noundef %1) #0 {
  %3 = alloca ptr, align 8
  %4 = alloca ptr, align 8
  %5 = alloca i64, align 8
  %6 = alloca ptr, align 8
  %7 = alloca %"class.llvm::ilist_iterator", align 8
  %8 = alloca %"class.llvm::ilist_iterator", align 8
  %9 = alloca ptr, align 8
  %10 = alloca i64, align 8
  %11 = alloca %"class.llvm::BlockFrequency", align 8
  store ptr %0, ptr %3, align 8
  store ptr %1, ptr %4, align 8
  store i64 0, ptr %5, align 8
  %12 = load ptr, ptr %3, align 8
  store ptr %12, ptr %6, align 8
  %13 = load ptr, ptr %6, align 8
  %14 = call ptr @_ZNK4llvm8Function5beginEv(ptr noundef nonnull align 8 dereferenceable(136) %13)
  %15 = getelementptr inbounds nuw %"class.llvm::ilist_iterator", ptr %7, i32 0, i32 0
  store ptr %14, ptr %15, align 8
  %16 = load ptr, ptr %6, align 8
  %17 = call ptr @_ZNK4llvm8Function3endEv(ptr noundef nonnull align 8 dereferenceable(136) %16)
  %18 = getelementptr inbounds nuw %"class.llvm::ilist_iterator", ptr %8, i32 0, i32 0
  store ptr %17, ptr %18, align 8
  br label %19

19:                                               ; preds = %34, %2
  %20 = call noundef zeroext i1 @_ZN4llvmneERKNS_14ilist_iteratorINS_12ilist_detail12node_optionsINS_10BasicBlockELb0ELb0EvLb0EvEELb0ELb1EEES7_(ptr noundef nonnull align 8 dereferenceable(8) %7, ptr noundef nonnull align 8 dereferenceable(8) %8)
  br i1 %20, label %21, label %36

21:                                               ; preds = %19
  %22 = call noundef nonnull align 8 dereferenceable(80) ptr @_ZNK4llvm14ilist_iteratorINS_12ilist_detail12node_optionsINS_10BasicBlockELb0ELb0EvLb0EvEELb0ELb1EEdeEv(ptr noundef nonnull align 8 dereferenceable(8) %7)
  store ptr %22, ptr %9, align 8
  %23 = load ptr, ptr %4, align 8
  %24 = load ptr, ptr %9, align 8
  %25 = call i64 @_ZNK4llvm18BlockFrequencyInfo12getBlockFreqEPKNS_10BasicBlockE(ptr noundef nonnull align 8 dereferenceable(8) %23, ptr noundef %24)
  %26 = getelementptr inbounds nuw %"class.llvm::BlockFrequency", ptr %11, i32 0, i32 0
  store i64 %25, ptr %26, align 8
  %27 = call noundef i64 @_ZNK4llvm14BlockFrequency12getFrequencyEv(ptr noundef nonnull align 8 dereferenceable(8) %11)
  store i64 %27, ptr %10, align 8
  %28 = load i64, ptr %10, align 8
  %29 = load i64, ptr %5, align 8
  %30 = icmp uge i64 %28, %29
  br i1 %30, label %31, label %33

31:                                               ; preds = %21
  %32 = load i64, ptr %10, align 8
  store i64 %32, ptr %5, align 8
  br label %33

33:                                               ; preds = %31, %21
  br label %34

34:                                               ; preds = %33
  %35 = call noundef nonnull align 8 dereferenceable(8) ptr @_ZN4llvm14ilist_iteratorINS_12ilist_detail12node_optionsINS_10BasicBlockELb0ELb0EvLb0EvEELb0ELb1EEppEv(ptr noundef nonnull align 8 dereferenceable(8) %7)
  br label %19

36:                                               ; preds = %19
  %37 = load i64, ptr %5, align 8
  ret i64 %37
}